target datalayout = "e-m:e-p270:32:32-p271:32:32-p272:64:64-i64:64-i128:128-f80:128-n8:16:32:64-S128"
target triple = "x86_64-pc-linux-gnu"

%struct.FormData_pg_foreign_data_wrapper = type { i32, %struct.nameData, i32, i32, i32 }
%struct.nameData = type { [64 x i8] }
%struct.HeapTupleData = type { i32, %struct.ItemPointerData, i32, ptr }
%struct.ItemPointerData = type { %struct.BlockIdData, i16 }
%struct.BlockIdData = type { i16, i16 }
%struct.HeapTupleHeaderData = type { %union.anon, %struct.ItemPointerData, i16, i16, i8, [0 x i8] }
%union.anon = type { %struct.HeapTupleFields }
%struct.HeapTupleFields = type { i32, i32, %union.anon.1 }
%union.anon.1 = type { i32 }
%struct.RelationData = type { %struct.RelFileLocator, ptr, i32, i32, i8, i8, i8, i8, i8, i32, i32, i32, i32, ptr, ptr, i32, %struct.LockInfoData, ptr, ptr, ptr, ptr, ptr, i8, ptr, ptr, ptr, ptr, ptr, ptr, i32, ptr, i8, ptr, ptr, i32, i8, i32, ptr, i8, ptr, ptr, ptr, ptr, ptr, ptr, ptr, i32, ptr, ptr, ptr, ptr, ptr, ptr, ptr, ptr, ptr, ptr, ptr, ptr, ptr, ptr, ptr, ptr, ptr, ptr, ptr, i32, i8, ptr }
%struct.RelFileLocator = type { i32, i32, i32 }
%struct.LockInfoData = type { %struct.LockRelId }
%struct.LockRelId = type { i32, i32 }

@.str.1 = private unnamed_addr constant [14 x i8] c"foreigncmds.c\00", align 1
@object_access_hook = external global ptr, align 8
@.str.29 = private unnamed_addr constant [63 x i8] c"permission denied to change owner of foreign-data wrapper \22%s\22\00", align 1
@.str.30 = private unnamed_addr constant [61 x i8] c"Must be superuser to change owner of a foreign-data wrapper.\00", align 1
@__func__.AlterForeignDataWrapperOwner_internal = private unnamed_addr constant [38 x i8] c"AlterForeignDataWrapperOwner_internal\00", align 1
@.str.31 = private unnamed_addr constant [57 x i8] c"The owner of a foreign-data wrapper must be a superuser.\00", align 1

; Function Attrs: inlinehint nounwind uwtable
define internal i64 @PointerGetDatum(ptr noundef %0) #6 {
  %2 = alloca ptr, align 8
  store ptr %0, ptr %2, align 8
  %3 = load ptr, ptr %2, align 8
  %4 = ptrtoint ptr %3 to i64
  ret i64 %4
}

; Function Attrs: inlinehint nounwind uwtable
define internal ptr @DatumGetPointer(i64 noundef %0) #6 {
  %2 = alloca i64, align 8
  store i64 %0, ptr %2, align 8
  %3 = load i64, ptr %2, align 8
  %4 = inttoptr i64 %3 to ptr
  ret ptr %4
}

; Function Attrs: inlinehint nounwind uwtable
define internal i64 @ObjectIdGetDatum(i32 noundef %0) #6 {
  %2 = alloca i32, align 4
  store i32 %0, ptr %2, align 4
  %3 = load i32, ptr %2, align 4
  %4 = zext i32 %3 to i64
  ret i64 %4
}

; Function Attrs: inlinehint nounwind uwtable
define internal ptr @GETSTRUCT(ptr noundef %0) #6 {
  %2 = alloca ptr, align 8
  store ptr %0, ptr %2, align 8
  %3 = load ptr, ptr %2, align 8
  %4 = getelementptr inbounds nuw %struct.HeapTupleData, ptr %3, i32 0, i32 3
  %5 = load ptr, ptr %4, align 8
  %6 = load ptr, ptr %2, align 8
  %7 = getelementptr inbounds nuw %struct.HeapTupleData, ptr %6, i32 0, i32 3
  %8 = load ptr, ptr %7, align 8
  %9 = getelementptr inbounds nuw %struct.HeapTupleHeaderData, ptr %8, i32 0, i32 4
  %10 = load i8, ptr %9, align 2
  %11 = zext i8 %10 to i32
  %12 = sext i32 %11 to i64
  %13 = getelementptr inbounds i8, ptr %5, i64 %12
  ret ptr %13
}

; Function Attrs: nounwind uwtable
define internal void @AlterForeignDataWrapperOwner_internal(ptr noundef %0, ptr noundef %1, i32 noundef %2) #0 {
  %4 = alloca ptr, align 8
  %5 = alloca ptr, align 8
  %6 = alloca i32, align 4
  %7 = alloca ptr, align 8
  %8 = alloca [7 x i64], align 16
  %9 = alloca [7 x i8], align 1
  %10 = alloca [7 x i8], align 1
  %11 = alloca ptr, align 8
  %12 = alloca i64, align 8
  %13 = alloca i8, align 1
  store ptr %0, ptr %4, align 8
  store ptr %1, ptr %5, align 8
  store i32 %2, ptr %6, align 4
  call void @llvm.lifetime.start.p0(i64 8, ptr %7) #9
  call void @llvm.lifetime.start.p0(i64 56, ptr %8) #9
  call void @llvm.lifetime.start.p0(i64 7, ptr %9) #9
  call void @llvm.lifetime.start.p0(i64 7, ptr %10) #9
  call void @llvm.lifetime.start.p0(i64 8, ptr %11) #9
  call void @llvm.lifetime.start.p0(i64 8, ptr %12) #9
  call void @llvm.lifetime.start.p0(i64 1, ptr %13) #9
  %14 = load ptr, ptr %5, align 8
  %15 = call ptr @GETSTRUCT(ptr noundef %14)
  store ptr %15, ptr %7, align 8
  %16 = call zeroext i1 @superuser()
  br i1 %16, label %34, label %17

17:                                               ; preds = %3
  br label %18

18:                                               ; preds = %17
  br i1 true, label %19, label %21

19:                                               ; preds = %18
  %20 = call zeroext i1 @errstart_cold(i32 noundef 21, ptr noundef null) #11
  br i1 %20, label %23, label %31

21:                                               ; preds = %18
  %22 = call zeroext i1 @errstart(i32 noundef 21, ptr noundef null)
  br i1 %22, label %23, label %31

23:                                               ; preds = %21, %19
  %24 = call i32 @errcode(i32 noundef 16797828)
  %25 = load ptr, ptr %7, align 8
  %26 = getelementptr inbounds nuw %struct.FormData_pg_foreign_data_wrapper, ptr %25, i32 0, i32 1
  %27 = getelementptr inbounds nuw %struct.nameData, ptr %26, i32 0, i32 0
  %28 = getelementptr inbounds [64 x i8], ptr %27, i64 0, i64 0
  %29 = call i32 (ptr, ...) @errmsg(ptr noundef @.str.29, ptr noundef %28)
  %30 = call i32 (ptr, ...) @errhint(ptr noundef @.str.30)
  call void @errfinish(ptr noundef @.str.1, i32 noundef 223, ptr noundef @__func__.AlterForeignDataWrapperOwner_internal)
  br label %31

31:                                               ; preds = %23, %21, %19
  unreachable

32:                                               ; No predecessors!
  br label %33

33:                                               ; preds = %32
  br label %34

34:                                               ; preds = %33, %3
  %35 = load i32, ptr %6, align 4
  %36 = call zeroext i1 @superuser_arg(i32 noundef %35)
  br i1 %36, label %54, label %37

37:                                               ; preds = %34
  br label %38

38:                                               ; preds = %37
  br i1 true, label %39, label %41

39:                                               ; preds = %38
  %40 = call zeroext i1 @errstart_cold(i32 noundef 21, ptr noundef null) #11
  br i1 %40, label %43, label %51

41:                                               ; preds = %38
  %42 = call zeroext i1 @errstart(i32 noundef 21, ptr noundef null)
  br i1 %42, label %43, label %51

43:                                               ; preds = %41, %39
  %44 = call i32 @errcode(i32 noundef 16797828)
  %45 = load ptr, ptr %7, align 8
  %46 = getelementptr inbounds nuw %struct.FormData_pg_foreign_data_wrapper, ptr %45, i32 0, i32 1
  %47 = getelementptr inbounds nuw %struct.nameData, ptr %46, i32 0, i32 0
  %48 = getelementptr inbounds [64 x i8], ptr %47, i64 0, i64 0
  %49 = call i32 (ptr, ...) @errmsg(ptr noundef @.str.29, ptr noundef %48)
  %50 = call i32 (ptr, ...) @errhint(ptr noundef @.str.31)
  call void @errfinish(ptr noundef @.str.1, i32 noundef 231, ptr noundef @__func__.AlterForeignDataWrapperOwner_internal)
  br label %51

51:                                               ; preds = %43, %41, %39
  unreachable

52:                                               ; No predecessors!
  br label %53

53:                                               ; preds = %52
  br label %54

54:                                               ; preds = %53, %34
  %55 = load ptr, ptr %7, align 8
  %56 = getelementptr inbounds nuw %struct.FormData_pg_foreign_data_wrapper, ptr %55, i32 0, i32 2
  %57 = load i32, ptr %56, align 4
  %58 = load i32, ptr %6, align 4
  %59 = icmp ne i32 %57, %58
  br i1 %59, label %60, label %104

60:                                               ; preds = %54
  %61 = getelementptr inbounds [7 x i8], ptr %9, i64 0, i64 0
  call void @llvm.memset.p0.i64(ptr align 1 %61, i8 0, i64 7, i1 false)
  %62 = getelementptr inbounds [7 x i8], ptr %10, i64 0, i64 0
  call void @llvm.memset.p0.i64(ptr align 1 %62, i8 0, i64 7, i1 false)
  %63 = getelementptr inbounds [7 x i8], ptr %10, i64 0, i64 2
  store i8 1, ptr %63, align 1
  %64 = load i32, ptr %6, align 4
  %65 = call i64 @ObjectIdGetDatum(i32 noundef %64)
  %66 = getelementptr inbounds [7 x i64], ptr %8, i64 0, i64 2
  store i64 %65, ptr %66, align 16
  %67 = load ptr, ptr %5, align 8
  %68 = load ptr, ptr %4, align 8
  %69 = getelementptr inbounds nuw %struct.RelationData, ptr %68, i32 0, i32 14
  %70 = load ptr, ptr %69, align 8
  %71 = call i64 @heap_getattr(ptr noundef %67, i32 noundef 6, ptr noundef %70, ptr noundef %13)
  store i64 %71, ptr %12, align 8
  %72 = load i8, ptr %13, align 1, !range !8, !noundef !9
  %73 = trunc i8 %72 to i1
  br i1 %73, label %87, label %74

74:                                               ; preds = %60
  %75 = load i64, ptr %12, align 8
  %76 = call ptr @DatumGetPointer(i64 noundef %75)
  %77 = call ptr @pg_detoast_datum(ptr noundef %76)
  %78 = load ptr, ptr %7, align 8
  %79 = getelementptr inbounds nuw %struct.FormData_pg_foreign_data_wrapper, ptr %78, i32 0, i32 2
  %80 = load i32, ptr %79, align 4
  %81 = load i32, ptr %6, align 4
  %82 = call ptr @aclnewowner(ptr noundef %77, i32 noundef %80, i32 noundef %81)
  store ptr %82, ptr %11, align 8
  %83 = getelementptr inbounds [7 x i8], ptr %10, i64 0, i64 5
  store i8 1, ptr %83, align 1
  %84 = load ptr, ptr %11, align 8
  %85 = call i64 @PointerGetDatum(ptr noundef %84)
  %86 = getelementptr inbounds [7 x i64], ptr %8, i64 0, i64 5
  store i64 %85, ptr %86, align 8
  br label %87

87:                                               ; preds = %74, %60
  %88 = load ptr, ptr %5, align 8
  %89 = load ptr, ptr %4, align 8
  %90 = getelementptr inbounds nuw %struct.RelationData, ptr %89, i32 0, i32 14
  %91 = load ptr, ptr %90, align 8
  %92 = getelementptr inbounds [7 x i64], ptr %8, i64 0, i64 0
  %93 = getelementptr inbounds [7 x i8], ptr %9, i64 0, i64 0
  %94 = getelementptr inbounds [7 x i8], ptr %10, i64 0, i64 0
  %95 = call ptr @heap_modify_tuple(ptr noundef %88, ptr noundef %91, ptr noundef %92, ptr noundef %93, ptr noundef %94)
  store ptr %95, ptr %5, align 8
  %96 = load ptr, ptr %4, align 8
  %97 = load ptr, ptr %5, align 8
  %98 = getelementptr inbounds nuw %struct.HeapTupleData, ptr %97, i32 0, i32 1
  %99 = load ptr, ptr %5, align 8
  call void @CatalogTupleUpdate(ptr noundef %96, ptr noundef %98, ptr noundef %99)
  %100 = load ptr, ptr %7, align 8
  %101 = getelementptr inbounds nuw %struct.FormData_pg_foreign_data_wrapper, ptr %100, i32 0, i32 0
  %102 = load i32, ptr %101, align 4
  %103 = load i32, ptr %6, align 4
  call void @changeDependencyOnOwner(i32 noundef 2328, i32 noundef %102, i32 noundef %103)
  br label %104

104:                                              ; preds = %87, %54
  br label %105

105:                                              ; preds = %104
  %106 = load ptr, ptr @object_access_hook, align 8
  %107 = icmp ne ptr %106, null
  br i1 %107, label %108, label %112

108:                                              ; preds = %105
  %109 = load ptr, ptr %7, align 8
  %110 = getelementptr inbounds nuw %struct.FormData_pg_foreign_data_wrapper, ptr %109, i32 0, i32 0
  %111 = load i32, ptr %110, align 4
  call void @RunObjectPostAlterHook(i32 noundef 2328, i32 noundef %111, i32 noundef 0, i32 noundef 0, i1 noundef zeroext false)
  br label %112

112:                                              ; preds = %108, %105
  br label %113

113:                                              ; preds = %112
  br label %114

114:                                              ; preds = %113
  call void @llvm.lifetime.end.p0(i64 1, ptr %13) #9
  call void @llvm.lifetime.end.p0(i64 8, ptr %12) #9
  call void @llvm.lifetime.end.p0(i64 8, ptr %11) #9
  call void @llvm.lifetime.end.p0(i64 7, ptr %10) #9
  call void @llvm.lifetime.end.p0(i64 7, ptr %9) #9
  call void @llvm.lifetime.end.p0(i64 56, ptr %8) #9
  call void @llvm.lifetime.end.p0(i64 8, ptr %7) #9
  ret void
}