; Function Attrs: nounwind uwtable
define internal fastcc void @AlterForeignDataWrapperOwner_internal(ptr noundef %0, ptr noundef nonnull %1, i32 noundef %2) unnamed_addr #0 {
  %4 = alloca [7 x i64], align 16
  %5 = alloca [7 x i8], align 1
  %6 = alloca [7 x i8], align 1
  %7 = alloca i8, align 1
  call void @llvm.lifetime.start.p0(i64 56, ptr nonnull %4) #9
  call void @llvm.lifetime.start.p0(i64 7, ptr nonnull %5) #9
  call void @llvm.lifetime.start.p0(i64 7, ptr nonnull %6) #9
  call void @llvm.lifetime.start.p0(i64 1, ptr nonnull %7) #9
  %8 = getelementptr i8, ptr %1, i64 16
  %.val = load ptr, ptr %8, align 8
  %9 = getelementptr inbounds nuw i8, ptr %.val, i64 22
  %10 = load i8, ptr %9, align 2
  %11 = zext i8 %10 to i64
  %12 = getelementptr inbounds nuw i8, ptr %.val, i64 %11
  %13 = tail call zeroext i1 @superuser() #9
  br i1 %13, label %20, label %14

14:                                               ; preds = %3
  %15 = tail call zeroext i1 @errstart_cold(i32 noundef 21, ptr noundef null) #11
  tail call void @llvm.assume(i1 %15)
  %16 = tail call i32 @errcode(i32 noundef 16797828) #9
  %17 = getelementptr inbounds nuw i8, ptr %12, i64 4
  %18 = tail call i32 (ptr, ...) @errmsg(ptr noundef nonnull @.str.29, ptr noundef nonnull %17) #9
  %19 = tail call i32 (ptr, ...) @errhint(ptr noundef nonnull @.str.30) #9
  tail call void @errfinish(ptr noundef nonnull @.str.1, i32 noundef 223, ptr noundef nonnull @__func__.AlterForeignDataWrapperOwner_internal) #9
  unreachable

20:                                               ; preds = %3
  %21 = tail call zeroext i1 @superuser_arg(i32 noundef %2) #9
  br i1 %21, label %28, label %22

22:                                               ; preds = %20
  %23 = tail call zeroext i1 @errstart_cold(i32 noundef 21, ptr noundef null) #11
  tail call void @llvm.assume(i1 %23)
  %24 = tail call i32 @errcode(i32 noundef 16797828) #9
  %25 = getelementptr inbounds nuw i8, ptr %12, i64 4
  %26 = tail call i32 (ptr, ...) @errmsg(ptr noundef nonnull @.str.29, ptr noundef nonnull %25) #9
  %27 = tail call i32 (ptr, ...) @errhint(ptr noundef nonnull @.str.31) #9
  tail call void @errfinish(ptr noundef nonnull @.str.1, i32 noundef 231, ptr noundef nonnull @__func__.AlterForeignDataWrapperOwner_internal) #9
  unreachable

28:                                               ; preds = %20
  %29 = getelementptr inbounds nuw i8, ptr %12, i64 68
  %30 = load i32, ptr %29, align 4
  %.not = icmp eq i32 %30, %2
  br i1 %.not, label %53, label %31

31:                                               ; preds = %28
  call void @llvm.memset.p0.i64(ptr noundef nonnull align 1 dereferenceable(7) %5, i8 0, i64 7, i1 false)
  call void @llvm.memset.p0.i64(ptr noundef nonnull align 1 dereferenceable(7) %6, i8 0, i64 7, i1 false)
  %32 = getelementptr inbounds nuw i8, ptr %6, i64 2
  store i8 1, ptr %32, align 1
  %33 = zext i32 %2 to i64
  %34 = getelementptr inbounds nuw i8, ptr %4, i64 16
  store i64 %33, ptr %34, align 16
  %35 = getelementptr inbounds nuw i8, ptr %0, i64 64
  %36 = load ptr, ptr %35, align 8
  %37 = call fastcc i64 @heap_getattr(ptr noundef %1, i32 noundef 6, ptr noundef %36, ptr noundef %7)
  %38 = load i8, ptr %7, align 1, !range !4, !noundef !5
  %39 = trunc nuw i8 %38 to i1
  br i1 %39, label %48, label %40

40:                                               ; preds = %31
  %41 = inttoptr i64 %37 to ptr
  %42 = call ptr @pg_detoast_datum(ptr noundef %41) #9
  %43 = load i32, ptr %29, align 4
  %44 = call ptr @aclnewowner(ptr noundef %42, i32 noundef %43, i32 noundef %2) #9
  %45 = getelementptr inbounds nuw i8, ptr %6, i64 5
  store i8 1, ptr %45, align 1
  %46 = ptrtoint ptr %44 to i64
  %47 = getelementptr inbounds nuw i8, ptr %4, i64 40
  store i64 %46, ptr %47, align 8
  br label %48

48:                                               ; preds = %40, %31
  %49 = load ptr, ptr %35, align 8
  %50 = call ptr @heap_modify_tuple(ptr noundef nonnull %1, ptr noundef %49, ptr noundef nonnull %4, ptr noundef nonnull %5, ptr noundef nonnull %6) #9
  %51 = getelementptr inbounds nuw i8, ptr %50, i64 4
  call void @CatalogTupleUpdate(ptr noundef nonnull %0, ptr noundef nonnull %51, ptr noundef %50) #9
  %52 = load i32, ptr %12, align 4
  call void @changeDependencyOnOwner(i32 noundef 2328, i32 noundef %52, i32 noundef %2) #9
  br label %53

53:                                               ; preds = %28, %48
  %54 = load ptr, ptr @object_access_hook, align 8
  %.not20 = icmp eq ptr %54, null
  br i1 %.not20, label %57, label %55

55:                                               ; preds = %53
  %56 = load i32, ptr %12, align 4
  call void @RunObjectPostAlterHook(i32 noundef 2328, i32 noundef %56, i32 noundef 0, i32 noundef 0, i1 noundef zeroext false) #9
  br label %57

57:                                               ; preds = %55, %53
  call void @llvm.lifetime.end.p0(i64 1, ptr nonnull %7) #9
  call void @llvm.lifetime.end.p0(i64 7, ptr nonnull %6) #9
  call void @llvm.lifetime.end.p0(i64 7, ptr nonnull %5) #9
  call void @llvm.lifetime.end.p0(i64 56, ptr nonnull %4) #9
  ret void
}